target datalayout = "e-m:e-p270:32:32-p271:32:32-p272:64:64-i64:64-i128:128-f80:128-n8:16:32:64-S128"
target triple = "x86_64-pc-linux-gnu"

%struct.Rwr_Node_t_ = type <{ i32, i32, i16, i16, i16, i32, [6 x i8], ptr, ptr, ptr }>

@.str = private unnamed_addr constant [7 x i8] c"Const1\00", align 1
@.str.1 = private unnamed_addr constant [3 x i8] c"%c\00", align 1
@.str.2 = private unnamed_addr constant [2 x i8] c"'\00", align 1
@.str.3 = private unnamed_addr constant [2 x i8] c"(\00", align 1
@.str.4 = private unnamed_addr constant [3 x i8] c")'\00", align 1
@.str.5 = private unnamed_addr constant [2 x i8] c")\00", align 1
@.str.6 = private unnamed_addr constant [2 x i8] c"+\00", align 1

; Function Attrs: nounwind uwtable
define internal ptr @Rwr_Regular(ptr noundef %0) #0 {
  %2 = alloca ptr, align 8
  store ptr %0, ptr %2, align 8
  %3 = load ptr, ptr %2, align 8
  %4 = ptrtoint ptr %3 to i64
  %5 = and i64 %4, -2
  %6 = inttoptr i64 %5 to ptr
  ret ptr %6
}

; Function Attrs: nounwind uwtable
define internal i32 @Rwr_IsComplement(ptr noundef %0) #0 {
  %2 = alloca ptr, align 8
  store ptr %0, ptr %2, align 8
  %3 = load ptr, ptr %2, align 8
  %4 = ptrtoint ptr %3 to i64
  %5 = and i64 %4, 1
  %6 = trunc i64 %5 to i32
  ret i32 %6
}

; Function Attrs: nounwind uwtable
define void @Rwr_NodePrint_rec(ptr noundef %0, ptr noundef %1) #0 {
  %3 = alloca ptr, align 8
  %4 = alloca ptr, align 8
  store ptr %0, ptr %3, align 8
  store ptr %1, ptr %4, align 8
  %5 = load ptr, ptr %4, align 8
  %6 = getelementptr inbounds %struct.Rwr_Node_t_, ptr %5, i32 0, i32 0
  %7 = load i32, ptr %6, align 8
  %8 = icmp eq i32 %7, 0
  br i1 %8, label %9, label %12

9:                                                ; preds = %2
  %10 = load ptr, ptr %3, align 8
  %11 = call i32 (ptr, ptr, ...) @fprintf(ptr noundef %10, ptr noundef @.str) #3
  br label %150

12:                                               ; preds = %2
  %13 = load ptr, ptr %4, align 8
  %14 = getelementptr inbounds %struct.Rwr_Node_t_, ptr %13, i32 0, i32 0
  %15 = load i32, ptr %14, align 8
  %16 = icmp slt i32 %15, 5
  br i1 %16, label %17, label %25

17:                                               ; preds = %12
  %18 = load ptr, ptr %3, align 8
  %19 = load ptr, ptr %4, align 8
  %20 = getelementptr inbounds %struct.Rwr_Node_t_, ptr %19, i32 0, i32 0
  %21 = load i32, ptr %20, align 8
  %22 = add nsw i32 97, %21
  %23 = sub nsw i32 %22, 1
  %24 = call i32 (ptr, ptr, ...) @fprintf(ptr noundef %18, ptr noundef @.str.1, i32 noundef %23) #3
  br label %150

25:                                               ; preds = %12
  %26 = load ptr, ptr %4, align 8
  %27 = getelementptr inbounds %struct.Rwr_Node_t_, ptr %26, i32 0, i32 7
  %28 = load ptr, ptr %27, align 8
  %29 = call i32 @Rwr_IsComplement(ptr noundef %28)
  %30 = icmp ne i32 %29, 0
  br i1 %30, label %31, label %58

31:                                               ; preds = %25
  %32 = load ptr, ptr %4, align 8
  %33 = getelementptr inbounds %struct.Rwr_Node_t_, ptr %32, i32 0, i32 7
  %34 = load ptr, ptr %33, align 8
  %35 = call ptr @Rwr_Regular(ptr noundef %34)
  %36 = getelementptr inbounds %struct.Rwr_Node_t_, ptr %35, i32 0, i32 0
  %37 = load i32, ptr %36, align 8
  %38 = icmp slt i32 %37, 5
  br i1 %38, label %39, label %47

39:                                               ; preds = %31
  %40 = load ptr, ptr %3, align 8
  %41 = load ptr, ptr %4, align 8
  %42 = getelementptr inbounds %struct.Rwr_Node_t_, ptr %41, i32 0, i32 7
  %43 = load ptr, ptr %42, align 8
  %44 = call ptr @Rwr_Regular(ptr noundef %43)
  call void @Rwr_NodePrint_rec(ptr noundef %40, ptr noundef %44)
  %45 = load ptr, ptr %3, align 8
  %46 = call i32 (ptr, ptr, ...) @fprintf(ptr noundef %45, ptr noundef @.str.2) #3
  br label %57

47:                                               ; preds = %31
  %48 = load ptr, ptr %3, align 8
  %49 = call i32 (ptr, ptr, ...) @fprintf(ptr noundef %48, ptr noundef @.str.3) #3
  %50 = load ptr, ptr %3, align 8
  %51 = load ptr, ptr %4, align 8
  %52 = getelementptr inbounds %struct.Rwr_Node_t_, ptr %51, i32 0, i32 7
  %53 = load ptr, ptr %52, align 8
  %54 = call ptr @Rwr_Regular(ptr noundef %53)
  call void @Rwr_NodePrint_rec(ptr noundef %50, ptr noundef %54)
  %55 = load ptr, ptr %3, align 8
  %56 = call i32 (ptr, ptr, ...) @fprintf(ptr noundef %55, ptr noundef @.str.4) #3
  br label %57

57:                                               ; preds = %47, %39
  br label %83

58:                                               ; preds = %25
  %59 = load ptr, ptr %4, align 8
  %60 = getelementptr inbounds %struct.Rwr_Node_t_, ptr %59, i32 0, i32 7
  %61 = load ptr, ptr %60, align 8
  %62 = call ptr @Rwr_Regular(ptr noundef %61)
  %63 = getelementptr inbounds %struct.Rwr_Node_t_, ptr %62, i32 0, i32 0
  %64 = load i32, ptr %63, align 8
  %65 = icmp slt i32 %64, 5
  br i1 %65, label %66, label %72

66:                                               ; preds = %58
  %67 = load ptr, ptr %3, align 8
  %68 = load ptr, ptr %4, align 8
  %69 = getelementptr inbounds %struct.Rwr_Node_t_, ptr %68, i32 0, i32 7
  %70 = load ptr, ptr %69, align 8
  %71 = call ptr @Rwr_Regular(ptr noundef %70)
  call void @Rwr_NodePrint_rec(ptr noundef %67, ptr noundef %71)
  br label %82

72:                                               ; preds = %58
  %73 = load ptr, ptr %3, align 8
  %74 = call i32 (ptr, ptr, ...) @fprintf(ptr noundef %73, ptr noundef @.str.3) #3
  %75 = load ptr, ptr %3, align 8
  %76 = load ptr, ptr %4, align 8
  %77 = getelementptr inbounds %struct.Rwr_Node_t_, ptr %76, i32 0, i32 7
  %78 = load ptr, ptr %77, align 8
  %79 = call ptr @Rwr_Regular(ptr noundef %78)
  call void @Rwr_NodePrint_rec(ptr noundef %75, ptr noundef %79)
  %80 = load ptr, ptr %3, align 8
  %81 = call i32 (ptr, ptr, ...) @fprintf(ptr noundef %80, ptr noundef @.str.5) #3
  br label %82

82:                                               ; preds = %72, %66
  br label %83

83:                                               ; preds = %82, %57
  %84 = load ptr, ptr %4, align 8
  %85 = getelementptr inbounds %struct.Rwr_Node_t_, ptr %84, i32 0, i32 5
  %86 = load i32, ptr %85, align 2
  %87 = lshr i32 %86, 31
  %88 = icmp ne i32 %87, 0
  br i1 %88, label %89, label %92

89:                                               ; preds = %83
  %90 = load ptr, ptr %3, align 8
  %91 = call i32 (ptr, ptr, ...) @fprintf(ptr noundef %90, ptr noundef @.str.6) #3
  br label %92

92:                                               ; preds = %89, %83
  %93 = load ptr, ptr %4, align 8
  %94 = getelementptr inbounds %struct.Rwr_Node_t_, ptr %93, i32 0, i32 8
  %95 = load ptr, ptr %94, align 8
  %96 = call i32 @Rwr_IsComplement(ptr noundef %95)
  %97 = icmp ne i32 %96, 0
  br i1 %97, label %98, label %125

98:                                               ; preds = %92
  %99 = load ptr, ptr %4, align 8
  %100 = getelementptr inbounds %struct.Rwr_Node_t_, ptr %99, i32 0, i32 8
  %101 = load ptr, ptr %100, align 8
  %102 = call ptr @Rwr_Regular(ptr noundef %101)
  %103 = getelementptr inbounds %struct.Rwr_Node_t_, ptr %102, i32 0, i32 0
  %104 = load i32, ptr %103, align 8
  %105 = icmp slt i32 %104, 5
  br i1 %105, label %106, label %114

106:                                              ; preds = %98
  %107 = load ptr, ptr %3, align 8
  %108 = load ptr, ptr %4, align 8
  %109 = getelementptr inbounds %struct.Rwr_Node_t_, ptr %108, i32 0, i32 8
  %110 = load ptr, ptr %109, align 8
  %111 = call ptr @Rwr_Regular(ptr noundef %110)
  call void @Rwr_NodePrint_rec(ptr noundef %107, ptr noundef %111)
  %112 = load ptr, ptr %3, align 8
  %113 = call i32 (ptr, ptr, ...) @fprintf(ptr noundef %112, ptr noundef @.str.2) #3
  br label %124

114:                                              ; preds = %98
  %115 = load ptr, ptr %3, align 8
  %116 = call i32 (ptr, ptr, ...) @fprintf(ptr noundef %115, ptr noundef @.str.3) #3
  %117 = load ptr, ptr %3, align 8
  %118 = load ptr, ptr %4, align 8
  %119 = getelementptr inbounds %struct.Rwr_Node_t_, ptr %118, i32 0, i32 8
  %120 = load ptr, ptr %119, align 8
  %121 = call ptr @Rwr_Regular(ptr noundef %120)
  call void @Rwr_NodePrint_rec(ptr noundef %117, ptr noundef %121)
  %122 = load ptr, ptr %3, align 8
  %123 = call i32 (ptr, ptr, ...) @fprintf(ptr noundef %122, ptr noundef @.str.4) #3
  br label %124

124:                                              ; preds = %114, %106
  br label %150

125:                                              ; preds = %92
  %126 = load ptr, ptr %4, align 8
  %127 = getelementptr inbounds %struct.Rwr_Node_t_, ptr %126, i32 0, i32 8
  %128 = load ptr, ptr %127, align 8
  %129 = call ptr @Rwr_Regular(ptr noundef %128)
  %130 = getelementptr inbounds %struct.Rwr_Node_t_, ptr %129, i32 0, i32 0
  %131 = load i32, ptr %130, align 8
  %132 = icmp slt i32 %131, 5
  br i1 %132, label %133, label %139

133:                                              ; preds = %125
  %134 = load ptr, ptr %3, align 8
  %135 = load ptr, ptr %4, align 8
  %136 = getelementptr inbounds %struct.Rwr_Node_t_, ptr %135, i32 0, i32 8
  %137 = load ptr, ptr %136, align 8
  %138 = call ptr @Rwr_Regular(ptr noundef %137)
  call void @Rwr_NodePrint_rec(ptr noundef %134, ptr noundef %138)
  br label %149

139:                                              ; preds = %125
  %140 = load ptr, ptr %3, align 8
  %141 = call i32 (ptr, ptr, ...) @fprintf(ptr noundef %140, ptr noundef @.str.3) #3
  %142 = load ptr, ptr %3, align 8
  %143 = load ptr, ptr %4, align 8
  %144 = getelementptr inbounds %struct.Rwr_Node_t_, ptr %143, i32 0, i32 8
  %145 = load ptr, ptr %144, align 8
  %146 = call ptr @Rwr_Regular(ptr noundef %145)
  call void @Rwr_NodePrint_rec(ptr noundef %142, ptr noundef %146)
  %147 = load ptr, ptr %3, align 8
  %148 = call i32 (ptr, ptr, ...) @fprintf(ptr noundef %147, ptr noundef @.str.5) #3
  br label %149

149:                                              ; preds = %139, %133
  br label %150

150:                                              ; preds = %149, %124, %17, %9
  ret void
}