; Function Attrs: nofree nounwind uwtable
define void @Rwr_NodePrint_rec(ptr noundef %0, ptr noundef readonly captures(none) %1) local_unnamed_addr #3 {
  %.pre = load i32, ptr %1, align 8
  br label %tailrecurse

tailrecurse:                                      ; preds = %59, %2
  %3 = phi i32 [ %.pre, %2 ], [ %60, %59 ]
  %.tr50 = phi ptr [ %1, %2 ], [ %43, %59 ]
  %4 = icmp eq i32 %3, 0
  br i1 %4, label %5, label %7

5:                                                ; preds = %tailrecurse
  %6 = tail call i64 @fwrite(ptr nonnull @.str, i64 6, i64 1, ptr %0)
  br label %common.ret99

7:                                                ; preds = %tailrecurse
  %8 = icmp slt i32 %3, 5
  br i1 %8, label %9, label %11

9:                                                ; preds = %7
  %10 = add nsw i32 %3, 96
  %fputc49 = tail call i32 @fputc(i32 %10, ptr %0)
  br label %common.ret99

11:                                               ; preds = %7
  %12 = getelementptr inbounds nuw i8, ptr %.tr50, i64 24
  %13 = load ptr, ptr %12, align 8
  %14 = ptrtoint ptr %13 to i64
  %15 = and i64 %14, 1
  %.not = icmp eq i64 %15, 0
  br i1 %.not, label %28, label %16

16:                                               ; preds = %11
  %17 = and i64 %14, -2
  %18 = inttoptr i64 %17 to ptr
  %19 = load i32, ptr %18, align 8
  %20 = icmp slt i32 %19, 5
  br i1 %20, label %21, label %22

21:                                               ; preds = %16
  tail call void @Rwr_NodePrint_rec(ptr noundef %0, ptr noundef nonnull %18)
  %fputc41 = tail call i32 @fputc(i32 39, ptr %0)
  br label %37

22:                                               ; preds = %16
  %fputc40 = tail call i32 @fputc(i32 40, ptr %0)
  %23 = load ptr, ptr %12, align 8
  %24 = ptrtoint ptr %23 to i64
  %25 = and i64 %24, -2
  %26 = inttoptr i64 %25 to ptr
  tail call void @Rwr_NodePrint_rec(ptr noundef %0, ptr noundef %26)
  %27 = tail call i64 @fwrite(ptr nonnull @.str.4, i64 2, i64 1, ptr %0)
  br label %37

28:                                               ; preds = %11
  %29 = load i32, ptr %13, align 8
  %30 = icmp slt i32 %29, 5
  br i1 %30, label %31, label %32

31:                                               ; preds = %28
  tail call void @Rwr_NodePrint_rec(ptr noundef %0, ptr noundef nonnull %13)
  br label %37

32:                                               ; preds = %28
  %fputc = tail call i32 @fputc(i32 40, ptr %0)
  %33 = load ptr, ptr %12, align 8
  %34 = ptrtoint ptr %33 to i64
  %35 = and i64 %34, -2
  %36 = inttoptr i64 %35 to ptr
  tail call void @Rwr_NodePrint_rec(ptr noundef %0, ptr noundef %36)
  %fputc39 = tail call i32 @fputc(i32 41, ptr %0)
  br label %37

37:                                               ; preds = %31, %32, %21, %22
  %38 = getelementptr inbounds nuw i8, ptr %.tr50, i64 14
  %39 = load i32, ptr %38, align 2
  %.not42 = icmp sgt i32 %39, -1
  br i1 %.not42, label %41, label %40

40:                                               ; preds = %37
  %fputc43 = tail call i32 @fputc(i32 43, ptr %0)
  br label %41

41:                                               ; preds = %40, %37
  %42 = getelementptr inbounds nuw i8, ptr %.tr50, i64 32
  %43 = load ptr, ptr %42, align 8
  %44 = ptrtoint ptr %43 to i64
  %45 = and i64 %44, 1
  %.not44 = icmp eq i64 %45, 0
  br i1 %.not44, label %59, label %46

46:                                               ; preds = %41
  %47 = and i64 %44, -2
  %48 = inttoptr i64 %47 to ptr
  %49 = load i32, ptr %48, align 8
  %50 = icmp slt i32 %49, 5
  br i1 %50, label %51, label %52

common.ret99:                                     ; preds = %9, %5, %62, %52, %51
  ret void

51:                                               ; preds = %46
  tail call void @Rwr_NodePrint_rec(ptr noundef %0, ptr noundef nonnull %48)
  %fputc48 = tail call i32 @fputc(i32 39, ptr %0)
  br label %common.ret99

52:                                               ; preds = %46
  %53 = getelementptr inbounds nuw i8, ptr %.tr50, i64 32
  %fputc47 = tail call i32 @fputc(i32 40, ptr %0)
  %54 = load ptr, ptr %53, align 8
  %55 = ptrtoint ptr %54 to i64
  %56 = and i64 %55, -2
  %57 = inttoptr i64 %56 to ptr
  tail call void @Rwr_NodePrint_rec(ptr noundef %0, ptr noundef %57)
  %58 = tail call i64 @fwrite(ptr nonnull @.str.4, i64 2, i64 1, ptr %0)
  br label %common.ret99

59:                                               ; preds = %41
  %60 = load i32, ptr %43, align 8
  %61 = icmp slt i32 %60, 5
  br i1 %61, label %tailrecurse, label %62

62:                                               ; preds = %59
  %63 = getelementptr inbounds nuw i8, ptr %.tr50, i64 32
  %fputc45 = tail call i32 @fputc(i32 40, ptr %0)
  %64 = load ptr, ptr %63, align 8
  %65 = ptrtoint ptr %64 to i64
  %66 = and i64 %65, -2
  %67 = inttoptr i64 %66 to ptr
  tail call void @Rwr_NodePrint_rec(ptr noundef %0, ptr noundef %67)
  %fputc46 = tail call i32 @fputc(i32 41, ptr %0)
  br label %common.ret99
}